target datalayout = "e-m:e-p270:32:32-p271:32:32-p272:64:64-i64:64-i128:128-f80:128-n8:16:32:64-S128"
target triple = "x86_64-unknown-linux-gnu"

%"class.icu_75::Locale" = type <{ %"class.icu_75::UObject", [12 x i8], [6 x i8], [4 x i8], [2 x i8], i32, [4 x i8], ptr, [157 x i8], [3 x i8], ptr, i8, [7 x i8] }>
%"class.icu_75::UObject" = type { ptr }

; Function Attrs: mustprogress uwtable
define void @_ZN6icu_756Locale10setToBogusEv(ptr noundef nonnull align 8 dereferenceable(217) %this) #1 align 2 {
entry:
  %this.addr = alloca ptr, align 8
  store ptr %this, ptr %this.addr, align 8
  %this1 = load ptr, ptr %this.addr, align 8
  %baseName = getelementptr inbounds %"class.icu_75::Locale", ptr %this1, i32 0, i32 10
  %0 = load ptr, ptr %baseName, align 8
  %fullName = getelementptr inbounds %"class.icu_75::Locale", ptr %this1, i32 0, i32 7
  %1 = load ptr, ptr %fullName, align 8
  %cmp = icmp ne ptr %0, %1
  br i1 %cmp, label %land.lhs.true, label %if.end

land.lhs.true:                                    ; preds = %entry
  %baseName2 = getelementptr inbounds %"class.icu_75::Locale", ptr %this1, i32 0, i32 10
  %2 = load ptr, ptr %baseName2, align 8
  %fullNameBuffer = getelementptr inbounds %"class.icu_75::Locale", ptr %this1, i32 0, i32 8
  %arraydecay = getelementptr inbounds [157 x i8], ptr %fullNameBuffer, i64 0, i64 0
  %cmp3 = icmp ne ptr %2, %arraydecay
  br i1 %cmp3, label %if.then, label %if.end

if.then:                                          ; preds = %land.lhs.true
  %baseName4 = getelementptr inbounds %"class.icu_75::Locale", ptr %this1, i32 0, i32 10
  %3 = load ptr, ptr %baseName4, align 8
  call void @uprv_free_75(ptr noundef %3)
  br label %if.end

if.end:                                           ; preds = %if.then, %land.lhs.true, %entry
  %baseName5 = getelementptr inbounds %"class.icu_75::Locale", ptr %this1, i32 0, i32 10
  store ptr null, ptr %baseName5, align 8
  %fullName6 = getelementptr inbounds %"class.icu_75::Locale", ptr %this1, i32 0, i32 7
  %4 = load ptr, ptr %fullName6, align 8
  %fullNameBuffer7 = getelementptr inbounds %"class.icu_75::Locale", ptr %this1, i32 0, i32 8
  %arraydecay8 = getelementptr inbounds [157 x i8], ptr %fullNameBuffer7, i64 0, i64 0
  %cmp9 = icmp ne ptr %4, %arraydecay8
  br i1 %cmp9, label %if.then10, label %if.end15

if.then10:                                        ; preds = %if.end
  %fullName11 = getelementptr inbounds %"class.icu_75::Locale", ptr %this1, i32 0, i32 7
  %5 = load ptr, ptr %fullName11, align 8
  call void @uprv_free_75(ptr noundef %5)
  %fullNameBuffer12 = getelementptr inbounds %"class.icu_75::Locale", ptr %this1, i32 0, i32 8
  %arraydecay13 = getelementptr inbounds [157 x i8], ptr %fullNameBuffer12, i64 0, i64 0
  %fullName14 = getelementptr inbounds %"class.icu_75::Locale", ptr %this1, i32 0, i32 7
  store ptr %arraydecay13, ptr %fullName14, align 8
  br label %if.end15

if.end15:                                         ; preds = %if.then10, %if.end
  %fullNameBuffer16 = getelementptr inbounds %"class.icu_75::Locale", ptr %this1, i32 0, i32 8
  %arraydecay17 = getelementptr inbounds [157 x i8], ptr %fullNameBuffer16, i64 0, i64 0
  store i8 0, ptr %arraydecay17, align 8
  %language = getelementptr inbounds %"class.icu_75::Locale", ptr %this1, i32 0, i32 1
  %arraydecay18 = getelementptr inbounds [12 x i8], ptr %language, i64 0, i64 0
  store i8 0, ptr %arraydecay18, align 8
  %script = getelementptr inbounds %"class.icu_75::Locale", ptr %this1, i32 0, i32 2
  %arraydecay19 = getelementptr inbounds [6 x i8], ptr %script, i64 0, i64 0
  store i8 0, ptr %arraydecay19, align 4
  %country = getelementptr inbounds %"class.icu_75::Locale", ptr %this1, i32 0, i32 3
  %arraydecay20 = getelementptr inbounds [4 x i8], ptr %country, i64 0, i64 0
  store i8 0, ptr %arraydecay20, align 2
  %fIsBogus = getelementptr inbounds %"class.icu_75::Locale", ptr %this1, i32 0, i32 11
  store i8 1, ptr %fIsBogus, align 8
  %variantBegin = getelementptr inbounds %"class.icu_75::Locale", ptr %this1, i32 0, i32 5
  store i32 0, ptr %variantBegin, align 8
  ret void
}

; Function Attrs: mustprogress uwtable
define noundef nonnull align 8 dereferenceable(217) ptr @_ZN6icu_756LocaleaSERKS0_(ptr noundef nonnull align 8 dereferenceable(217) %this, ptr noundef nonnull align 8 dereferenceable(217) %other) #1 align 2 {
entry:
  %retval = alloca ptr, align 8
  %this.addr = alloca ptr, align 8
  %other.addr = alloca ptr, align 8
  store ptr %this, ptr %this.addr, align 8
  store ptr %other, ptr %other.addr, align 8
  %this1 = load ptr, ptr %this.addr, align 8
  %0 = load ptr, ptr %other.addr, align 8
  %cmp = icmp eq ptr %this1, %0
  br i1 %cmp, label %if.then, label %if.end

if.then:                                          ; preds = %entry
  store ptr %this1, ptr %retval, align 8
  br label %return

if.end:                                           ; preds = %entry
  call void @_ZN6icu_756Locale10setToBogusEv(ptr noundef nonnull align 8 dereferenceable(217) %this1)
  %1 = load ptr, ptr %other.addr, align 8
  %fullName = getelementptr inbounds %"class.icu_75::Locale", ptr %1, i32 0, i32 7
  %2 = load ptr, ptr %fullName, align 8
  %3 = load ptr, ptr %other.addr, align 8
  %fullNameBuffer = getelementptr inbounds %"class.icu_75::Locale", ptr %3, i32 0, i32 8
  %arraydecay = getelementptr inbounds [157 x i8], ptr %fullNameBuffer, i64 0, i64 0
  %cmp2 = icmp eq ptr %2, %arraydecay
  br i1 %cmp2, label %if.then3, label %if.else

if.then3:                                         ; preds = %if.end
  %fullNameBuffer4 = getelementptr inbounds %"class.icu_75::Locale", ptr %this1, i32 0, i32 8
  %arraydecay5 = getelementptr inbounds [157 x i8], ptr %fullNameBuffer4, i64 0, i64 0
  %4 = load ptr, ptr %other.addr, align 8
  %fullNameBuffer6 = getelementptr inbounds %"class.icu_75::Locale", ptr %4, i32 0, i32 8
  %arraydecay7 = getelementptr inbounds [157 x i8], ptr %fullNameBuffer6, i64 0, i64 0
  %call = call ptr @strcpy(ptr noundef %arraydecay5, ptr noundef %arraydecay7) #10
  br label %if.end21

if.else:                                          ; preds = %if.end
  %5 = load ptr, ptr %other.addr, align 8
  %fullName8 = getelementptr inbounds %"class.icu_75::Locale", ptr %5, i32 0, i32 7
  %6 = load ptr, ptr %fullName8, align 8
  %cmp9 = icmp eq ptr %6, null
  br i1 %cmp9, label %if.then10, label %if.else12

if.then10:                                        ; preds = %if.else
  %fullName11 = getelementptr inbounds %"class.icu_75::Locale", ptr %this1, i32 0, i32 7
  store ptr null, ptr %fullName11, align 8
  br label %if.end20

if.else12:                                        ; preds = %if.else
  %7 = load ptr, ptr %other.addr, align 8
  %fullName13 = getelementptr inbounds %"class.icu_75::Locale", ptr %7, i32 0, i32 7
  %8 = load ptr, ptr %fullName13, align 8
  %call14 = call ptr @uprv_strdup_75(ptr noundef %8)
  %fullName15 = getelementptr inbounds %"class.icu_75::Locale", ptr %this1, i32 0, i32 7
  store ptr %call14, ptr %fullName15, align 8
  %fullName16 = getelementptr inbounds %"class.icu_75::Locale", ptr %this1, i32 0, i32 7
  %9 = load ptr, ptr %fullName16, align 8
  %cmp17 = icmp eq ptr %9, null
  br i1 %cmp17, label %if.then18, label %if.end19

if.then18:                                        ; preds = %if.else12
  store ptr %this1, ptr %retval, align 8
  br label %return

if.end19:                                         ; preds = %if.else12
  br label %if.end20

if.end20:                                         ; preds = %if.end19, %if.then10
  br label %if.end21

if.end21:                                         ; preds = %if.end20, %if.then3
  %10 = load ptr, ptr %other.addr, align 8
  %baseName = getelementptr inbounds %"class.icu_75::Locale", ptr %10, i32 0, i32 10
  %11 = load ptr, ptr %baseName, align 8
  %12 = load ptr, ptr %other.addr, align 8
  %fullName22 = getelementptr inbounds %"class.icu_75::Locale", ptr %12, i32 0, i32 7
  %13 = load ptr, ptr %fullName22, align 8
  %cmp23 = icmp eq ptr %11, %13
  br i1 %cmp23, label %if.then24, label %if.else27

if.then24:                                        ; preds = %if.end21
  %fullName25 = getelementptr inbounds %"class.icu_75::Locale", ptr %this1, i32 0, i32 7
  %14 = load ptr, ptr %fullName25, align 8
  %baseName26 = getelementptr inbounds %"class.icu_75::Locale", ptr %this1, i32 0, i32 10
  store ptr %14, ptr %baseName26, align 8
  br label %if.end39

if.else27:                                        ; preds = %if.end21
  %15 = load ptr, ptr %other.addr, align 8
  %baseName28 = getelementptr inbounds %"class.icu_75::Locale", ptr %15, i32 0, i32 10
  %16 = load ptr, ptr %baseName28, align 8
  %cmp29 = icmp ne ptr %16, null
  br i1 %cmp29, label %if.then30, label %if.end38

if.then30:                                        ; preds = %if.else27
  %17 = load ptr, ptr %other.addr, align 8
  %baseName31 = getelementptr inbounds %"class.icu_75::Locale", ptr %17, i32 0, i32 10
  %18 = load ptr, ptr %baseName31, align 8
  %call32 = call ptr @uprv_strdup_75(ptr noundef %18)
  %baseName33 = getelementptr inbounds %"class.icu_75::Locale", ptr %this1, i32 0, i32 10
  store ptr %call32, ptr %baseName33, align 8
  %baseName34 = getelementptr inbounds %"class.icu_75::Locale", ptr %this1, i32 0, i32 10
  %19 = load ptr, ptr %baseName34, align 8
  %cmp35 = icmp eq ptr %19, null
  br i1 %cmp35, label %if.then36, label %if.end37

if.then36:                                        ; preds = %if.then30
  store ptr %this1, ptr %retval, align 8
  br label %return

if.end37:                                         ; preds = %if.then30
  br label %if.end38

if.end38:                                         ; preds = %if.end37, %if.else27
  br label %if.end39

if.end39:                                         ; preds = %if.end38, %if.then24
  %language = getelementptr inbounds %"class.icu_75::Locale", ptr %this1, i32 0, i32 1
  %arraydecay40 = getelementptr inbounds [12 x i8], ptr %language, i64 0, i64 0
  %20 = load ptr, ptr %other.addr, align 8
  %language41 = getelementptr inbounds %"class.icu_75::Locale", ptr %20, i32 0, i32 1
  %arraydecay42 = getelementptr inbounds [12 x i8], ptr %language41, i64 0, i64 0
  %call43 = call ptr @strcpy(ptr noundef %arraydecay40, ptr noundef %arraydecay42) #10
  %script = getelementptr inbounds %"class.icu_75::Locale", ptr %this1, i32 0, i32 2
  %arraydecay44 = getelementptr inbounds [6 x i8], ptr %script, i64 0, i64 0
  %21 = load ptr, ptr %other.addr, align 8
  %script45 = getelementptr inbounds %"class.icu_75::Locale", ptr %21, i32 0, i32 2
  %arraydecay46 = getelementptr inbounds [6 x i8], ptr %script45, i64 0, i64 0
  %call47 = call ptr @strcpy(ptr noundef %arraydecay44, ptr noundef %arraydecay46) #10
  %country = getelementptr inbounds %"class.icu_75::Locale", ptr %this1, i32 0, i32 3
  %arraydecay48 = getelementptr inbounds [4 x i8], ptr %country, i64 0, i64 0
  %22 = load ptr, ptr %other.addr, align 8
  %country49 = getelementptr inbounds %"class.icu_75::Locale", ptr %22, i32 0, i32 3
  %arraydecay50 = getelementptr inbounds [4 x i8], ptr %country49, i64 0, i64 0
  %call51 = call ptr @strcpy(ptr noundef %arraydecay48, ptr noundef %arraydecay50) #10
  %23 = load ptr, ptr %other.addr, align 8
  %variantBegin = getelementptr inbounds %"class.icu_75::Locale", ptr %23, i32 0, i32 5
  %24 = load i32, ptr %variantBegin, align 8
  %variantBegin52 = getelementptr inbounds %"class.icu_75::Locale", ptr %this1, i32 0, i32 5
  store i32 %24, ptr %variantBegin52, align 8
  %25 = load ptr, ptr %other.addr, align 8
  %fIsBogus = getelementptr inbounds %"class.icu_75::Locale", ptr %25, i32 0, i32 11
  %26 = load i8, ptr %fIsBogus, align 8
  %fIsBogus53 = getelementptr inbounds %"class.icu_75::Locale", ptr %this1, i32 0, i32 11
  store i8 %26, ptr %fIsBogus53, align 8
  store ptr %this1, ptr %retval, align 8
  br label %return

return:                                           ; preds = %if.end39, %if.then36, %if.then18, %if.then
  %27 = load ptr, ptr %retval, align 8
  ret ptr %27
}