; Function Attrs: mustprogress uwtable
define noundef nonnull align 8 dereferenceable(217) ptr @_ZN6icu_756LocaleaSERKS0_(ptr noundef nonnull returned align 8 dereferenceable(217) %this, ptr noundef nonnull readonly align 8 dereferenceable(217) %other) local_unnamed_addr #1 align 2 {
entry:
  %cmp = icmp eq ptr %this, %other
  br i1 %cmp, label %return, label %if.end

if.end:                                           ; preds = %entry
  %baseName.i = getelementptr inbounds i8, ptr %this, i64 208
  %0 = load ptr, ptr %baseName.i, align 8
  %fullName.i = getelementptr inbounds i8, ptr %this, i64 40
  %1 = load ptr, ptr %fullName.i, align 8
  %cmp.not.i = icmp eq ptr %0, %1
  %fullNameBuffer.i = getelementptr inbounds i8, ptr %this, i64 48
  %cmp3.not.i = icmp eq ptr %0, %fullNameBuffer.i
  %or.cond.i = select i1 %cmp.not.i, i1 true, i1 %cmp3.not.i
  br i1 %or.cond.i, label %if.end.i, label %if.then.i

if.then.i:                                        ; preds = %if.end
  tail call void @uprv_free_75(ptr noundef %0)
  %.pre.i = load ptr, ptr %fullName.i, align 8
  br label %if.end.i

if.end.i:                                         ; preds = %if.then.i, %if.end
  %2 = phi ptr [ %.pre.i, %if.then.i ], [ %1, %if.end ]
  store ptr null, ptr %baseName.i, align 8
  %cmp9.not.i = icmp eq ptr %2, %fullNameBuffer.i
  br i1 %cmp9.not.i, label %_ZN6icu_756Locale10setToBogusEv.exit, label %if.then10.i

if.then10.i:                                      ; preds = %if.end.i
  tail call void @uprv_free_75(ptr noundef %2)
  store ptr %fullNameBuffer.i, ptr %fullName.i, align 8
  br label %_ZN6icu_756Locale10setToBogusEv.exit

_ZN6icu_756Locale10setToBogusEv.exit:             ; preds = %if.end.i, %if.then10.i
  store i8 0, ptr %fullNameBuffer.i, align 8
  %language.i = getelementptr inbounds i8, ptr %this, i64 8
  store i8 0, ptr %language.i, align 8
  %script.i = getelementptr inbounds i8, ptr %this, i64 20
  store i8 0, ptr %script.i, align 4
  %country.i = getelementptr inbounds i8, ptr %this, i64 26
  store i8 0, ptr %country.i, align 2
  %fIsBogus.i = getelementptr inbounds i8, ptr %this, i64 216
  store i8 1, ptr %fIsBogus.i, align 8
  %variantBegin.i = getelementptr inbounds i8, ptr %this, i64 32
  store i32 0, ptr %variantBegin.i, align 8
  %fullName = getelementptr inbounds i8, ptr %other, i64 40
  %3 = load ptr, ptr %fullName, align 8
  %fullNameBuffer = getelementptr inbounds i8, ptr %other, i64 48
  %cmp2 = icmp eq ptr %3, %fullNameBuffer
  br i1 %cmp2, label %if.then3, label %if.else

if.then3:                                         ; preds = %_ZN6icu_756Locale10setToBogusEv.exit
  %call = tail call ptr @strcpy(ptr noundef nonnull dereferenceable(1) %fullNameBuffer.i, ptr noundef nonnull dereferenceable(1) %3) #20
  br label %if.end21

if.else:                                          ; preds = %_ZN6icu_756Locale10setToBogusEv.exit
  %cmp9 = icmp eq ptr %3, null
  br i1 %cmp9, label %if.then10, label %if.else12

if.then10:                                        ; preds = %if.else
  store ptr null, ptr %fullName.i, align 8
  br label %if.end21

if.else12:                                        ; preds = %if.else
  %call14 = tail call ptr @uprv_strdup_75(ptr noundef nonnull %3)
  store ptr %call14, ptr %fullName.i, align 8
  %cmp17 = icmp eq ptr %call14, null
  br i1 %cmp17, label %return, label %if.end21

if.end21:                                         ; preds = %if.then10, %if.else12, %if.then3
  %4 = phi ptr [ null, %if.then10 ], [ %call14, %if.else12 ], [ %fullNameBuffer.i, %if.then3 ]
  %baseName = getelementptr inbounds i8, ptr %other, i64 208
  %5 = load ptr, ptr %baseName, align 8
  %6 = load ptr, ptr %fullName, align 8
  %cmp23 = icmp eq ptr %5, %6
  br i1 %cmp23, label %if.then24, label %if.else27

if.then24:                                        ; preds = %if.end21
  store ptr %4, ptr %baseName.i, align 8
  br label %if.end39

if.else27:                                        ; preds = %if.end21
  %cmp29.not = icmp eq ptr %5, null
  br i1 %cmp29.not, label %if.end39, label %if.then30

if.then30:                                        ; preds = %if.else27
  %call32 = tail call ptr @uprv_strdup_75(ptr noundef nonnull %5)
  store ptr %call32, ptr %baseName.i, align 8
  %cmp35 = icmp eq ptr %call32, null
  br i1 %cmp35, label %return, label %if.end39

if.end39:                                         ; preds = %if.else27, %if.then30, %if.then24
  %language41 = getelementptr inbounds i8, ptr %other, i64 8
  %call43 = tail call ptr @strcpy(ptr noundef nonnull dereferenceable(1) %language.i, ptr noundef nonnull dereferenceable(1) %language41) #20
  %script45 = getelementptr inbounds i8, ptr %other, i64 20
  %call47 = tail call ptr @strcpy(ptr noundef nonnull dereferenceable(1) %script.i, ptr noundef nonnull dereferenceable(1) %script45) #20
  %country49 = getelementptr inbounds i8, ptr %other, i64 26
  %call51 = tail call ptr @strcpy(ptr noundef nonnull dereferenceable(1) %country.i, ptr noundef nonnull dereferenceable(1) %country49) #20
  %variantBegin = getelementptr inbounds i8, ptr %other, i64 32
  %7 = load i32, ptr %variantBegin, align 8
  store i32 %7, ptr %variantBegin.i, align 8
  %fIsBogus = getelementptr inbounds i8, ptr %other, i64 216
  %8 = load i8, ptr %fIsBogus, align 8
  store i8 %8, ptr %fIsBogus.i, align 8
  br label %return

return:                                           ; preds = %if.then30, %if.else12, %entry, %if.end39
  ret ptr %this
}